; Function Attrs: nofree nounwind memory(readwrite, argmem: read) uwtable
define noalias noundef ptr @Sat_SolverGetModel(ptr noundef readonly captures(none) %0, ptr noundef readonly captures(none) %1, i32 noundef %2) local_unnamed_addr #3 {
  %4 = add nsw i32 %2, 1
  %5 = sext i32 %4 to i64
  %6 = tail call noalias ptr @calloc(i64 noundef %5, i64 noundef 4) #8
  %7 = icmp sgt i32 %2, 0
  br i1 %7, label %.lr.ph, label %._crit_edge

.lr.ph:                                           ; preds = %3
  %8 = getelementptr i8, ptr %0, i64 328
  %.val = load ptr, ptr %8, align 8, !tbaa !57
  %wide.trip.count = zext nneg i32 %2 to i64
  br label %9

9:                                                ; preds = %.lr.ph, %9
  %indvars.iv = phi i64 [ 0, %.lr.ph ], [ %indvars.iv.next, %9 ]
  %10 = getelementptr inbounds nuw i32, ptr %1, i64 %indvars.iv
  %11 = load i32, ptr %10, align 4, !tbaa !23
  %12 = sext i32 %11 to i64
  %13 = getelementptr inbounds i32, ptr %.val, i64 %12
  %14 = load i32, ptr %13, align 4, !tbaa !23
  %15 = icmp eq i32 %14, 1
  %16 = zext i1 %15 to i32
  %17 = getelementptr inbounds nuw i32, ptr %6, i64 %indvars.iv
  store i32 %16, ptr %17, align 4, !tbaa !23
  %indvars.iv.next = add nuw nsw i64 %indvars.iv, 1
  %exitcond.not = icmp eq i64 %indvars.iv.next, %wide.trip.count
  br i1 %exitcond.not, label %._crit_edge, label %9, !llvm.loop !58

._crit_edge:                                      ; preds = %9, %3
  ret ptr %6
}